; Function Attrs: mustprogress uwtable
define noundef zeroext i1 @_ZNK6casadi2MX7is_zeroEv(ptr noundef nonnull align 8 dereferenceable(8) %0) local_unnamed_addr #3 align 2 {
  %2 = tail call noundef ptr @_ZNK6casadi12SharedObjectptEv(ptr noundef nonnull align 8 dereferenceable(8) %0)
  %3 = getelementptr inbounds i8, ptr %2, i64 56
  %4 = tail call noundef i64 @_ZNK6casadi8Sparsity3nnzEv(ptr noundef nonnull align 8 dereferenceable(8) %3)
  %5 = icmp eq i64 %4, 0
  br i1 %5, label %12, label %6

6:                                                ; preds = %1
  %7 = tail call noundef ptr @_ZNK6casadi12SharedObjectptEv(ptr noundef nonnull align 8 dereferenceable(8) %0)
  %8 = load ptr, ptr %7, align 8
  %9 = getelementptr inbounds i8, ptr %8, i64 40
  %10 = load ptr, ptr %9, align 8
  %11 = tail call noundef zeroext i1 %10(ptr noundef nonnull align 8 dereferenceable(64) %7)
  br label %12

12:                                               ; preds = %1, %6
  %.0 = phi i1 [ %11, %6 ], [ true, %1 ]
  ret i1 %.0
}